; Function Attrs: nounwind uwtable
define internal fastcc void @skip_spaces(ptr noundef %0, ptr noundef nonnull captures(none) %1) unnamed_addr #2 {
  %3 = alloca i8, align 1
  %.pr = load i32, ptr %1, align 4, !tbaa !31
  br label %4

4:                                                ; preds = %.critedge, %2
  %5 = phi i32 [ %12, %.critedge ], [ %.pr, %2 ]
  switch i32 %5, label %13 [
    i32 32, label %.critedge
    i32 9, label %.critedge
    i32 10, label %.critedge
    i32 13, label %.critedge
  ]

.critedge:                                        ; preds = %4, %4, %4, %4
  call void @llvm.lifetime.start.p0(i64 1, ptr nonnull %3) #7
  %6 = call i32 @avio_read(ptr noundef %0, ptr noundef nonnull %3, i32 noundef 1) #7
  %7 = icmp sgt i32 %6, 0
  %8 = load i8, ptr %3, align 1
  %9 = zext i8 %8 to i32
  %10 = icmp eq i32 %6, 0
  %11 = select i1 %10, i32 -541478725, i32 %6
  %12 = select i1 %7, i32 %9, i32 %11
  store i32 %12, ptr %1, align 4, !tbaa !31
  call void @llvm.lifetime.end.p0(i64 1, ptr nonnull %3) #7
  br label %4, !llvm.loop !76

13:                                               ; preds = %4
  ret void
}